; Function Attrs: mustprogress uwtable
define void @_ZNK8proxygen10HPACKCodec8describeERSo(ptr noundef nonnull align 8 dereferenceable(408) %this, ptr noundef nonnull align 8 dereferenceable(8) %stream) local_unnamed_addr #3 align 2 {
entry:
  %call = tail call noundef nonnull align 8 dereferenceable(8) ptr @_ZStlsISt11char_traitsIcEERSt13basic_ostreamIcT_ES5_PKc(ptr noundef nonnull align 8 dereferenceable(8) %stream, ptr noundef nonnull @.str)
  %add.ptr = getelementptr inbounds i8, ptr %this, i64 296
  %call2 = tail call noundef nonnull align 8 dereferenceable(8) ptr @_ZN8proxygenlsERSoRKNS_12HPACKContextE(ptr noundef nonnull align 8 dereferenceable(8) %call, ptr noundef nonnull align 8 dereferenceable(84) %add.ptr)
  %call3 = tail call noundef nonnull align 8 dereferenceable(8) ptr @_ZStlsISt11char_traitsIcEERSt13basic_ostreamIcT_ES5_PKc(ptr noundef nonnull align 8 dereferenceable(8) %stream, ptr noundef nonnull @.str.1)
  %add.ptr4 = getelementptr inbounds i8, ptr %this, i64 192
  %call5 = tail call noundef nonnull align 8 dereferenceable(8) ptr @_ZN8proxygenlsERSoRKNS_12HPACKContextE(ptr noundef nonnull align 8 dereferenceable(8) %call3, ptr noundef nonnull align 8 dereferenceable(84) %add.ptr4)
  ret void
}